Certificate:
    Data:
        Version: 3 (0x2)
        Serial Number: 1 (0x1)
        Signature Algorithm: sha256WithRSAEncryption
        Issuer: CN=Jel Root Certificate Authority, ST=CA, C=US/emailAddress=admin@jel.app, O=Jel, OU=Development
        Validity
            Not Before: Jan 28 00:26:42 2021 GMT
            Not After : Jan 27 00:26:42 2026 GMT
        Subject: CN=hubs.local, ST=CA, C=US/emailAddress=admin@jel.app, O=Jel, OU=Development
        Subject Public Key Info:
            Public Key Algorithm: rsaEncryption
                RSA Public-Key: (2048 bit)
                Modulus:
                    00:cd:1d:eb:8f:f3:43:7b:fa:83:69:08:3e:59:eb:
                    d3:7f:9c:0c:61:d8:cc:5d:b3:51:ee:4e:29:33:0d:
                    b0:b3:02:56:d5:cc:99:62:11:0b:2e:df:18:42:38:
                    7d:b1:91:60:ec:50:98:ae:0c:20:66:64:36:37:c8:
                    ef:33:f5:54:fd:2b:36:74:06:51:06:f6:7a:e3:7b:
                    ac:b2:6c:14:71:de:7f:22:9f:1d:ca:08:08:c7:54:
                    04:c4:f3:f5:19:45:a2:b5:13:96:c9:16:9d:cf:66:
                    81:ab:70:1a:41:5e:20:90:05:1f:94:01:92:78:0f:
                    27:6c:47:b6:ed:82:80:c0:9a:27:d8:b5:47:ef:66:
                    67:c9:54:39:9d:e2:c7:43:fe:79:c2:90:98:26:ae:
                    e1:4d:c0:68:77:c1:8e:4b:2a:0c:fb:65:18:7c:93:
                    ca:8b:39:e4:4c:c5:d1:88:36:ec:78:b1:60:4c:ac:
                    46:b6:56:ab:67:6b:cc:07:8b:7e:c5:7d:94:43:a7:
                    14:92:56:73:52:2c:82:26:5c:c2:43:ba:21:6f:74:
                    06:a1:5c:1f:7b:ed:a6:90:d1:cc:cf:6b:84:d8:1c:
                    46:53:8a:1b:33:30:1a:36:6d:f9:6a:0b:b6:b3:de:
                    7b:24:68:36:8e:77:cd:88:0d:2e:03:ed:39:c1:84:
                    fe:49
                Exponent: 65537 (0x10001)
        X509v3 extensions:
            X509v3 Basic Constraints: 
                CA:FALSE
            X509v3 Key Usage: 
                Digital Signature, Non Repudiation, Key Encipherment
            X509v3 Subject Alternative Name: 
                DNS:hubs.local, DNS:hubs-proxy.local, DNS:hubs-cors-proxy.local
    Signature Algorithm: sha256WithRSAEncryption
         85:b9:5e:f5:6b:8e:d9:22:ef:38:0e:23:62:cc:54:25:f6:f2:
         52:f5:fb:45:34:90:7e:d9:ec:cb:3a:f6:32:1d:5b:ea:aa:b2:
         69:95:60:23:8b:4a:7d:0b:a6:f7:b2:87:52:39:19:4c:a5:f7:
         58:15:13:85:24:6d:68:56:60:b2:fa:6a:f6:79:ba:5b:24:bb:
         92:b3:34:3c:67:a8:9c:07:ae:02:49:af:78:62:5f:b6:e0:fe:
         26:0c:50:fd:9b:e9:01:21:5a:f8:7c:7e:b1:05:a6:ec:5a:8f:
         16:f6:bc:31:b5:d5:12:af:ef:9a:7e:de:71:f8:fd:49:83:ed:
         ba:4a:fe:06:3e:57:fa:dc:a9:a2:71:8b:23:f0:3e:0c:6c:29:
         1b:fb:d6:d7:e8:df:a1:9b:7e:6c:f5:ed:1e:1b:8f:49:e8:a6:
         ef:d5:d8:cd:eb:36:4c:a1:d7:65:b5:56:bf:81:5f:64:32:1b:
         88:50:70:62:6d:4d:8c:eb:7f:47:0e:a6:69:85:01:ec:8c:12:
         27:4b:eb:eb:36:07:75:ae:06:93:7f:8d:de:a2:32:5a:d4:de:
         c4:97:c7:4c:ec:ab:83:b1:16:80:f5:a1:fc:5d:2a:29:2a:6a:
         65:31:a1:28:6c:db:22:e0:f9:fc:79:60:f9:89:89:2a:15:03:
         c3:37:77:91
-----BEGIN CERTIFICATE-----
MIIDzDCCArSgAwIBAgIBATANBgkqhkiG9w0BAQsFADCBhTEnMCUGA1UEAwweSmVs
IFJvb3QgQ2VydGlmaWNhdGUgQXV0aG9yaXR5MQswCQYDVQQIDAJDQTELMAkGA1UE
BhMCVVMxHDAaBgkqhkiG9w0BCQEWDWFkbWluQGplbC5hcHAxDDAKBgNVBAoMA0pl
bDEUMBIGA1UECwwLRGV2ZWxvcG1lbnQwHhcNMjEwMTI4MDAyNjQyWhcNMjYwMTI3
MDAyNjQyWjBxMRMwEQYDVQQDDApodWJzLmxvY2FsMQswCQYDVQQIDAJDQTELMAkG
A1UEBhMCVVMxHDAaBgkqhkiG9w0BCQEWDWFkbWluQGplbC5hcHAxDDAKBgNVBAoM
A0plbDEUMBIGA1UECwwLRGV2ZWxvcG1lbnQwggEiMA0GCSqGSIb3DQEBAQUAA4IB
DwAwggEKAoIBAQDNHeuP80N7+oNpCD5Z69N/nAxh2Mxds1HuTikzDbCzAlbVzJli
EQsu3xhCOH2xkWDsUJiuDCBmZDY3yO8z9VT9KzZ0BlEG9nrje6yybBRx3n8inx3K
CAjHVATE8/UZRaK1E5bJFp3PZoGrcBpBXiCQBR+UAZJ4DydsR7btgoDAmifYtUfv
ZmfJVDmd4sdD/nnCkJgmruFNwGh3wY5LKgz7ZRh8k8qLOeRMxdGINux4sWBMrEa2
Vqtna8wHi37FfZRDpxSSVnNSLIImXMJDuiFvdAahXB977aaQ0czPa4TYHEZTihsz
MBo2bflqC7az3nskaDaOd82IDS4D7TnBhP5JAgMBAAGjWjBYMAkGA1UdEwQCMAAw
CwYDVR0PBAQDAgXgMD4GA1UdEQQ3MDWCCmh1YnMubG9jYWyCEGh1YnMtcHJveHku
bG9jYWyCFWh1YnMtY29ycy1wcm94eS5sb2NhbDANBgkqhkiG9w0BAQsFAAOCAQEA
hble9WuO2SLvOA4jYsxUJfbyUvX7RTSQftnsyzr2Mh1b6qqyaZVgI4tKfQum97KH
UjkZTKX3WBUThSRtaFZgsvpq9nm6WyS7krM0PGeonAeuAkmveGJftuD+JgxQ/Zvp
ASFa+Hx+sQWm7FqPFva8MbXVEq/vmn7ecfj9SYPtukr+Bj5X+typonGLI/A+DGwp
G/vW1+jfoZt+bPXtHhuPSeim79XYzes2TKHXZbVWv4FfZDIbiFBwYm1NjOt/Rw6m
aYUB7IwSJ0vr6zYHda4Gk3+N3qIyWtTexJfHTOyrg7EWgPWh/F0qKSpqZTGhKGzb
IuD5/Hlg+YmJKhUDwzd3kQ==
-----END CERTIFICATE-----
